; Function Attrs: nounwind uwtable
define zeroext range(i8 0, 2) i8 @l_Std_DHashMap_Internal_AssocList_contains___at___private_Lean_Meta_Tactic_Grind_Arith_CommRing_Proof_0__Lean_Meta_Grind_Arith_CommRing_Null_caching___spec__2(i64 noundef %0, ptr noundef %1) local_unnamed_addr #1 {
  br label %lean_dec.exit

lean_dec.exit:                                    ; preds = %lean_dec.exit20, %2
  %.017 = phi ptr [ %1, %2 ], [ %24, %lean_dec.exit20 ]
  %3 = ptrtoint ptr %.017 to i64
  %4 = and i64 %3, 1
  %.not.i26 = icmp eq i64 %4, 0
  br i1 %.not.i26, label %8, label %5

5:                                                ; preds = %lean_dec.exit
  %6 = lshr i64 %3, 1
  %7 = trunc i64 %6 to i32
  br label %lean_obj_tag.exit

8:                                                ; preds = %lean_dec.exit
  %9 = getelementptr i8, ptr %.017, i64 4
  %.val.i = load i32, ptr %9, align 4
  %10 = lshr i32 %.val.i, 24
  br label %lean_obj_tag.exit

lean_obj_tag.exit:                                ; preds = %5, %8
  %.0.i = phi i32 [ %7, %5 ], [ %10, %8 ]
  %11 = icmp eq i32 %.0.i, 0
  br i1 %11, label %lean_dec.exit.thread, label %12

12:                                               ; preds = %lean_obj_tag.exit
  %13 = getelementptr inbounds nuw i8, ptr %.017, i64 8
  %14 = load ptr, ptr %13, align 8, !tbaa !11
  %15 = ptrtoint ptr %14 to i64
  %16 = and i64 %15, 1
  %.not = icmp eq i64 %16, 0
  br i1 %.not, label %17, label %lean_inc.exit19

17:                                               ; preds = %12
  %.val.i27 = load i32, ptr %14, align 4, !tbaa !6
  %18 = icmp sgt i32 %.val.i27, 0
  br i1 %18, label %19, label %21, !prof !5

19:                                               ; preds = %17
  %20 = add nuw i32 %.val.i27, 1
  store i32 %20, ptr %14, align 4, !tbaa !6
  br label %lean_inc.exit19

21:                                               ; preds = %17
  %.not.i28 = icmp eq i32 %.val.i27, 0
  br i1 %.not.i28, label %lean_inc.exit19, label %22

22:                                               ; preds = %21
  tail call void @lean_inc_ref_cold(ptr noundef nonnull %14) #6
  br label %lean_inc.exit19

lean_inc.exit19:                                  ; preds = %22, %21, %19, %12
  %23 = getelementptr inbounds nuw i8, ptr %.017, i64 24
  %24 = load ptr, ptr %23, align 8, !tbaa !11
  %25 = ptrtoint ptr %24 to i64
  %26 = and i64 %25, 1
  %.not36 = icmp eq i64 %26, 0
  br i1 %.not36, label %27, label %lean_inc.exit

27:                                               ; preds = %lean_inc.exit19
  %.val.i29 = load i32, ptr %24, align 4, !tbaa !6
  %28 = icmp sgt i32 %.val.i29, 0
  br i1 %28, label %29, label %31, !prof !5

29:                                               ; preds = %27
  %30 = add nuw i32 %.val.i29, 1
  store i32 %30, ptr %24, align 4, !tbaa !6
  br label %lean_inc.exit

31:                                               ; preds = %27
  %.not.i30 = icmp eq i32 %.val.i29, 0
  br i1 %.not.i30, label %lean_inc.exit, label %32

32:                                               ; preds = %31
  tail call void @lean_inc_ref_cold(ptr noundef nonnull %24) #6
  br label %lean_inc.exit

lean_inc.exit:                                    ; preds = %32, %31, %29, %lean_inc.exit19
  br i1 %.not.i26, label %33, label %lean_dec.exit21

33:                                               ; preds = %lean_inc.exit
  %34 = load i32, ptr %.017, align 4, !tbaa !6
  %35 = icmp sgt i32 %34, 1
  br i1 %35, label %36, label %38, !prof !5

36:                                               ; preds = %33
  %37 = add nsw i32 %34, -1
  store i32 %37, ptr %.017, align 4, !tbaa !6
  br label %lean_dec.exit21

38:                                               ; preds = %33
  %.not.i = icmp eq i32 %34, 0
  br i1 %.not.i, label %lean_dec.exit21, label %39

39:                                               ; preds = %38
  tail call void @lean_dec_ref_cold(ptr noundef nonnull %.017) #6
  br label %lean_dec.exit21

lean_dec.exit21:                                  ; preds = %39, %38, %36, %lean_inc.exit
  %40 = getelementptr i8, ptr %14, i64 8
  %.val = load i64, ptr %40, align 8, !tbaa !15
  br i1 %.not, label %41, label %lean_dec.exit20

41:                                               ; preds = %lean_dec.exit21
  %42 = load i32, ptr %14, align 4, !tbaa !6
  %43 = icmp sgt i32 %42, 1
  br i1 %43, label %44, label %46, !prof !5

44:                                               ; preds = %41
  %45 = add nsw i32 %42, -1
  store i32 %45, ptr %14, align 4, !tbaa !6
  br label %lean_dec.exit20

46:                                               ; preds = %41
  %.not.i22 = icmp eq i32 %42, 0
  br i1 %.not.i22, label %lean_dec.exit20, label %47

47:                                               ; preds = %46
  tail call void @lean_dec_ref_cold(ptr noundef nonnull %14) #6
  br label %lean_dec.exit20

lean_dec.exit20:                                  ; preds = %47, %46, %44, %lean_dec.exit21
  %.not38 = icmp eq i64 %.val, %0
  br i1 %.not38, label %48, label %lean_dec.exit

48:                                               ; preds = %lean_dec.exit20
  br i1 %.not36, label %49, label %lean_dec.exit.thread

49:                                               ; preds = %48
  %50 = load i32, ptr %24, align 4, !tbaa !6
  %51 = icmp sgt i32 %50, 1
  br i1 %51, label %52, label %54, !prof !5

52:                                               ; preds = %49
  %53 = add nsw i32 %50, -1
  store i32 %53, ptr %24, align 4, !tbaa !6
  br label %lean_dec.exit.thread

54:                                               ; preds = %49
  %.not.i24 = icmp eq i32 %50, 0
  br i1 %.not.i24, label %lean_dec.exit.thread, label %55

55:                                               ; preds = %54
  tail call void @lean_dec_ref_cold(ptr noundef nonnull %24) #6
  br label %lean_dec.exit.thread

lean_dec.exit.thread:                             ; preds = %lean_obj_tag.exit, %48, %52, %54, %55
  %.1 = phi i8 [ 1, %55 ], [ 1, %54 ], [ 1, %52 ], [ 1, %48 ], [ 0, %lean_obj_tag.exit ]
  ret i8 %.1
}